; Function Attrs: nounwind uwtable
define zeroext i8 @l_Array_foldlMUnsafe_fold___at_Lean_Meta_DiscrTree_containsValueP___spec__4___rarg(ptr noundef %0, ptr noundef readonly captures(none) %1, i64 noundef %2, i64 noundef %3, i8 noundef zeroext %4) local_unnamed_addr #2 {
  %.not39 = icmp eq i64 %2, %3
  br i1 %.not39, label %._crit_edge, label %.lr.ph

.lr.ph:                                           ; preds = %5
  %6 = getelementptr inbounds nuw i8, ptr %1, i64 24
  %7 = ptrtoint ptr %0 to i64
  %8 = and i64 %7, 1
  %.not37 = icmp eq i64 %8, 0
  br i1 %.not37, label %.lr.ph.split.us, label %.lr.ph.split

.lr.ph.split.us:                                  ; preds = %.lr.ph, %lean_dec.exit.us
  %.02041.us = phi i64 [ %40, %lean_dec.exit.us ], [ %2, %.lr.ph ]
  %.02240.us = phi i8 [ %31, %lean_dec.exit.us ], [ %4, %.lr.ph ]
  %9 = getelementptr inbounds nuw [0 x ptr], ptr %6, i64 0, i64 %.02041.us
  %10 = load ptr, ptr %9, align 8, !tbaa !9
  %11 = ptrtoint ptr %10 to i64
  %12 = and i64 %11, 1
  %.not.i27.us = icmp eq i64 %12, 0
  br i1 %.not.i27.us, label %13, label %lean_array_uget.exit.us

13:                                               ; preds = %.lr.ph.split.us
  %.val.i.i.us = load i32, ptr %10, align 4, !tbaa !4
  %14 = icmp sgt i32 %.val.i.i.us, 0
  br i1 %14, label %17, label %15, !prof !11

15:                                               ; preds = %13
  %.not.i.i.us = icmp eq i32 %.val.i.i.us, 0
  br i1 %.not.i.i.us, label %lean_array_uget.exit.us, label %16

16:                                               ; preds = %15
  tail call void @lean_inc_ref_cold(ptr noundef nonnull %10) #7
  br label %lean_array_uget.exit.us

17:                                               ; preds = %13
  %18 = add nuw i32 %.val.i.i.us, 1
  store i32 %18, ptr %10, align 4, !tbaa !4
  br label %lean_array_uget.exit.us

lean_array_uget.exit.us:                          ; preds = %17, %16, %15, %.lr.ph.split.us
  %19 = zext i8 %.02240.us to i64
  %20 = shl nuw nsw i64 %19, 1
  %21 = or disjoint i64 %20, 1
  %22 = inttoptr i64 %21 to ptr
  %.val.i.us = load i32, ptr %0, align 4, !tbaa !4
  %23 = icmp sgt i32 %.val.i.us, 0
  br i1 %23, label %26, label %24, !prof !11

24:                                               ; preds = %lean_array_uget.exit.us
  %.not.i28.us = icmp eq i32 %.val.i.us, 0
  br i1 %.not.i28.us, label %lean_inc.exit.us, label %25

25:                                               ; preds = %24
  tail call void @lean_inc_ref_cold(ptr noundef nonnull %0) #7
  br label %lean_inc.exit.us

26:                                               ; preds = %lean_array_uget.exit.us
  %27 = add nuw i32 %.val.i.us, 1
  store i32 %27, ptr %0, align 4, !tbaa !4
  br label %lean_inc.exit.us

lean_inc.exit.us:                                 ; preds = %26, %25, %24
  %28 = tail call ptr @lean_apply_2(ptr noundef nonnull %0, ptr noundef nonnull %22, ptr noundef %10) #7
  %29 = ptrtoint ptr %28 to i64
  %30 = lshr i64 %29, 1
  %31 = trunc i64 %30 to i8
  %32 = and i64 %29, 1
  %.not38.us = icmp eq i64 %32, 0
  br i1 %.not38.us, label %33, label %lean_dec.exit.us

33:                                               ; preds = %lean_inc.exit.us
  %34 = load i32, ptr %28, align 4, !tbaa !4
  %35 = icmp sgt i32 %34, 1
  br i1 %35, label %38, label %36, !prof !11

36:                                               ; preds = %33
  %.not.i.us = icmp eq i32 %34, 0
  br i1 %.not.i.us, label %lean_dec.exit.us, label %37

37:                                               ; preds = %36
  tail call void @lean_dec_ref_cold(ptr noundef nonnull %28) #7
  br label %lean_dec.exit.us

38:                                               ; preds = %33
  %39 = add nsw i32 %34, -1
  store i32 %39, ptr %28, align 4, !tbaa !4
  br label %lean_dec.exit.us

lean_dec.exit.us:                                 ; preds = %38, %37, %36, %lean_inc.exit.us
  %40 = add i64 %.02041.us, 1
  %.not.us = icmp eq i64 %40, %3
  br i1 %.not.us, label %._crit_edge.thread, label %.lr.ph.split.us

.lr.ph.split:                                     ; preds = %.lr.ph, %lean_dec.exit
  %.02041 = phi i64 [ %74, %lean_dec.exit ], [ %2, %.lr.ph ]
  %.02240 = phi i8 [ %58, %lean_dec.exit ], [ %4, %.lr.ph ]
  %41 = getelementptr inbounds nuw [0 x ptr], ptr %6, i64 0, i64 %.02041
  %42 = load ptr, ptr %41, align 8, !tbaa !9
  %43 = ptrtoint ptr %42 to i64
  %44 = and i64 %43, 1
  %.not.i27 = icmp eq i64 %44, 0
  br i1 %.not.i27, label %45, label %lean_array_uget.exit

45:                                               ; preds = %.lr.ph.split
  %.val.i.i = load i32, ptr %42, align 4, !tbaa !4
  %46 = icmp sgt i32 %.val.i.i, 0
  br i1 %46, label %47, label %49, !prof !11

47:                                               ; preds = %45
  %48 = add nuw i32 %.val.i.i, 1
  store i32 %48, ptr %42, align 4, !tbaa !4
  br label %lean_array_uget.exit

49:                                               ; preds = %45
  %.not.i.i = icmp eq i32 %.val.i.i, 0
  br i1 %.not.i.i, label %lean_array_uget.exit, label %50

50:                                               ; preds = %49
  tail call void @lean_inc_ref_cold(ptr noundef nonnull %42) #7
  br label %lean_array_uget.exit

lean_array_uget.exit:                             ; preds = %.lr.ph.split, %47, %49, %50
  %51 = zext i8 %.02240 to i64
  %52 = shl nuw nsw i64 %51, 1
  %53 = or disjoint i64 %52, 1
  %54 = inttoptr i64 %53 to ptr
  %55 = tail call ptr @lean_apply_2(ptr noundef %0, ptr noundef nonnull %54, ptr noundef %42) #7
  %56 = ptrtoint ptr %55 to i64
  %57 = lshr i64 %56, 1
  %58 = trunc i64 %57 to i8
  %59 = and i64 %56, 1
  %.not38 = icmp eq i64 %59, 0
  br i1 %.not38, label %60, label %lean_dec.exit

60:                                               ; preds = %lean_array_uget.exit
  %61 = load i32, ptr %55, align 4, !tbaa !4
  %62 = icmp sgt i32 %61, 1
  br i1 %62, label %63, label %65, !prof !11

63:                                               ; preds = %60
  %64 = add nsw i32 %61, -1
  store i32 %64, ptr %55, align 4, !tbaa !4
  br label %lean_dec.exit

65:                                               ; preds = %60
  %.not.i = icmp eq i32 %61, 0
  br i1 %.not.i, label %lean_dec.exit, label %66

66:                                               ; preds = %65
  tail call void @lean_dec_ref_cold(ptr noundef nonnull %55) #7
  br label %lean_dec.exit

._crit_edge:                                      ; preds = %5
  %.pre = ptrtoint ptr %0 to i64
  %.pre44 = and i64 %.pre, 1
  %67 = icmp eq i64 %.pre44, 0
  br i1 %67, label %._crit_edge.thread, label %._crit_edge.thread50

._crit_edge.thread:                               ; preds = %lean_dec.exit.us, %._crit_edge
  %.022.lcssa49 = phi i8 [ %4, %._crit_edge ], [ %31, %lean_dec.exit.us ]
  %68 = load i32, ptr %0, align 4, !tbaa !4
  %69 = icmp sgt i32 %68, 1
  br i1 %69, label %70, label %72, !prof !11

70:                                               ; preds = %._crit_edge.thread
  %71 = add nsw i32 %68, -1
  store i32 %71, ptr %0, align 4, !tbaa !4
  br label %._crit_edge.thread50

72:                                               ; preds = %._crit_edge.thread
  %.not.i25 = icmp eq i32 %68, 0
  br i1 %.not.i25, label %._crit_edge.thread50, label %73

73:                                               ; preds = %72
  tail call void @lean_dec_ref_cold(ptr noundef nonnull %0) #7
  br label %._crit_edge.thread50

lean_dec.exit:                                    ; preds = %lean_array_uget.exit, %63, %65, %66
  %74 = add i64 %.02041, 1
  %.not = icmp eq i64 %74, %3
  br i1 %.not, label %._crit_edge.thread50, label %.lr.ph.split

._crit_edge.thread50:                             ; preds = %lean_dec.exit, %73, %72, %70, %._crit_edge
  %.022.lcssa48 = phi i8 [ %.022.lcssa49, %73 ], [ %.022.lcssa49, %72 ], [ %.022.lcssa49, %70 ], [ %4, %._crit_edge ], [ %58, %lean_dec.exit ]
  ret i8 %.022.lcssa48
}